target datalayout = "e-m:e-p270:32:32-p271:32:32-p272:64:64-i64:64-i128:128-f80:128-n8:16:32:64-S128"
target triple = "x86_64-pc-linux-gnu"

@_ZZN32pxrInternal_v0_24__pxrReserved__21UsdRenderSettingsBase14_IsTypedSchemaEvE7isTyped = internal global i8 0, align 1
@_ZGVZN32pxrInternal_v0_24__pxrReserved__21UsdRenderSettingsBase14_IsTypedSchemaEvE7isTyped = internal global i64 0, align 8

; Function Attrs: mustprogress uwtable
define noundef zeroext i1 @_ZN32pxrInternal_v0_24__pxrReserved__21UsdRenderSettingsBase14_IsTypedSchemaEv() #0 align 2 personality ptr @__gxx_personality_v0 {
  %1 = alloca ptr, align 8
  %2 = alloca i32, align 4
  %3 = load atomic i8, ptr @_ZGVZN32pxrInternal_v0_24__pxrReserved__21UsdRenderSettingsBase14_IsTypedSchemaEvE7isTyped acquire, align 8
  %4 = icmp eq i8 %3, 0
  br i1 %4, label %5, label %14, !prof !4

5:                                                ; preds = %0
  %6 = call i32 @__cxa_guard_acquire(ptr @_ZGVZN32pxrInternal_v0_24__pxrReserved__21UsdRenderSettingsBase14_IsTypedSchemaEvE7isTyped) #6
  %7 = icmp ne i32 %6, 0
  br i1 %7, label %8, label %14

8:                                                ; preds = %5
  %9 = invoke noundef nonnull align 8 dereferenceable(8) ptr @_ZN32pxrInternal_v0_24__pxrReserved__21UsdRenderSettingsBase16_GetStaticTfTypeEv()
          to label %10 unwind label %17

10:                                               ; preds = %8
  %11 = invoke noundef zeroext i1 @_ZNK32pxrInternal_v0_24__pxrReserved__6TfType3IsAINS_8UsdTypedEEEbv(ptr noundef nonnull align 8 dereferenceable(8) %9)
          to label %12 unwind label %17

12:                                               ; preds = %10
  %13 = zext i1 %11 to i8
  store i8 %13, ptr @_ZZN32pxrInternal_v0_24__pxrReserved__21UsdRenderSettingsBase14_IsTypedSchemaEvE7isTyped, align 1
  call void @__cxa_guard_release(ptr @_ZGVZN32pxrInternal_v0_24__pxrReserved__21UsdRenderSettingsBase14_IsTypedSchemaEvE7isTyped) #6
  br label %14

14:                                               ; preds = %12, %5, %0
  %15 = load i8, ptr @_ZZN32pxrInternal_v0_24__pxrReserved__21UsdRenderSettingsBase14_IsTypedSchemaEvE7isTyped, align 1
  %16 = trunc i8 %15 to i1
  ret i1 %16

17:                                               ; preds = %10, %8
  %18 = landingpad { ptr, i32 }
          cleanup
  %19 = extractvalue { ptr, i32 } %18, 0
  store ptr %19, ptr %1, align 8
  %20 = extractvalue { ptr, i32 } %18, 1
  store i32 %20, ptr %2, align 4
  call void @__cxa_guard_abort(ptr @_ZGVZN32pxrInternal_v0_24__pxrReserved__21UsdRenderSettingsBase14_IsTypedSchemaEvE7isTyped) #6
  br label %21

21:                                               ; preds = %17
  %22 = load ptr, ptr %1, align 8
  %23 = load i32, ptr %2, align 4
  %24 = insertvalue { ptr, i32 } poison, ptr %22, 0
  %25 = insertvalue { ptr, i32 } %24, i32 %23, 1
  resume { ptr, i32 } %25
}